target datalayout = "e-m:e-p270:32:32-p271:32:32-p272:64:64-i64:64-i128:128-f80:128-n8:16:32:64-S128"
target triple = "x86_64-pc-linux-gnu"

%struct.tm = type { i32, i32, i32, i32, i32, i32, i32, i32, i32, i64, ptr }

@.str.3 = private unnamed_addr constant [32 x i8] c"../openssl/crypto/asn1/a_time.c\00", align 1
@__func__.ASN1_TIME_adj = private unnamed_addr constant [14 x i8] c"ASN1_TIME_adj\00", align 1

; Function Attrs: nounwind uwtable
define dso_local ptr @ASN1_TIME_adj(ptr noundef %0, i64 noundef %1, i32 noundef %2, i64 noundef %3) #0 {
  %5 = alloca ptr, align 8
  %6 = alloca ptr, align 8
  %7 = alloca i64, align 8
  %8 = alloca i32, align 4
  %9 = alloca i64, align 8
  %10 = alloca ptr, align 8
  %11 = alloca %struct.tm, align 8
  %12 = alloca i32, align 4
  store ptr %0, ptr %6, align 8, !tbaa !13
  store i64 %1, ptr %7, align 8, !tbaa !11
  store i32 %2, ptr %8, align 4, !tbaa !17
  store i64 %3, ptr %9, align 8, !tbaa !11
  call void @llvm.lifetime.start.p0(i64 8, ptr %10) #7
  call void @llvm.lifetime.start.p0(i64 56, ptr %11) #7
  %13 = call ptr @OPENSSL_gmtime(ptr noundef %7, ptr noundef %11)
  store ptr %13, ptr %10, align 8, !tbaa !15
  %14 = load ptr, ptr %10, align 8, !tbaa !15
  %15 = icmp eq ptr %14, null
  br i1 %15, label %16, label %17

16:                                               ; preds = %4
  call void @ERR_new()
  call void @ERR_set_debug(ptr noundef @.str.3, i32 noundef 336, ptr noundef @__func__.ASN1_TIME_adj)
  call void (i32, i32, ptr, ...) @ERR_set_error(i32 noundef 13, i32 noundef 173, ptr noundef null)
  store ptr null, ptr %5, align 8
  store i32 1, ptr %12, align 4
  br label %35

17:                                               ; preds = %4
  %18 = load i32, ptr %8, align 4, !tbaa !17
  %19 = icmp ne i32 %18, 0
  br i1 %19, label %23, label %20

20:                                               ; preds = %17
  %21 = load i64, ptr %9, align 8, !tbaa !11
  %22 = icmp ne i64 %21, 0
  br i1 %22, label %23, label %31

23:                                               ; preds = %20, %17
  %24 = load ptr, ptr %10, align 8, !tbaa !15
  %25 = load i32, ptr %8, align 4, !tbaa !17
  %26 = load i64, ptr %9, align 8, !tbaa !11
  %27 = call i32 @OPENSSL_gmtime_adj(ptr noundef %24, i32 noundef %25, i64 noundef %26)
  %28 = icmp ne i32 %27, 0
  br i1 %28, label %30, label %29

29:                                               ; preds = %23
  store ptr null, ptr %5, align 8
  store i32 1, ptr %12, align 4
  br label %35

30:                                               ; preds = %23
  br label %31

31:                                               ; preds = %30, %20
  %32 = load ptr, ptr %6, align 8, !tbaa !13
  %33 = load ptr, ptr %10, align 8, !tbaa !15
  %34 = call ptr @ossl_asn1_time_from_tm(ptr noundef %32, ptr noundef %33, i32 noundef -1)
  store ptr %34, ptr %5, align 8
  store i32 1, ptr %12, align 4
  br label %35

35:                                               ; preds = %31, %29, %16
  call void @llvm.lifetime.end.p0(i64 56, ptr %11) #7
  call void @llvm.lifetime.end.p0(i64 8, ptr %10) #7
  %36 = load ptr, ptr %5, align 8
  ret ptr %36
}