; Function Attrs: nounwind uwtable
define dso_local noundef ptr @ASN1_TIME_adj(ptr noundef %0, i64 noundef %1, i32 noundef %2, i64 noundef %3) local_unnamed_addr #1 {
  %5 = alloca i64, align 8
  %6 = alloca %struct.tm, align 8
  store i64 %1, ptr %5, align 8, !tbaa !31
  call void @llvm.lifetime.start.p0(i64 56, ptr nonnull %6) #8
  %7 = call ptr @OPENSSL_gmtime(ptr noundef nonnull %5, ptr noundef nonnull %6) #8
  %8 = icmp eq ptr %7, null
  br i1 %8, label %9, label %10

9:                                                ; preds = %4
  call void @ERR_new() #8
  call void @ERR_set_debug(ptr noundef nonnull @.str.3, i32 noundef 336, ptr noundef nonnull @__func__.ASN1_TIME_adj) #8
  call void (i32, i32, ptr, ...) @ERR_set_error(i32 noundef 13, i32 noundef 173, ptr noundef null) #8
  br label %17

10:                                               ; preds = %4
  %11 = icmp ne i32 %2, 0
  %12 = icmp ne i64 %3, 0
  %or.cond = or i1 %11, %12
  br i1 %or.cond, label %13, label %15

13:                                               ; preds = %10
  %14 = call i32 @OPENSSL_gmtime_adj(ptr noundef nonnull %7, i32 noundef %2, i64 noundef %3) #8
  %.not = icmp eq i32 %14, 0
  br i1 %.not, label %17, label %15

15:                                               ; preds = %13, %10
  %16 = call ptr @ossl_asn1_time_from_tm(ptr noundef %0, ptr noundef nonnull %7, i32 noundef -1)
  br label %17

17:                                               ; preds = %13, %15, %9
  %.0 = phi ptr [ null, %9 ], [ %16, %15 ], [ null, %13 ]
  call void @llvm.lifetime.end.p0(i64 56, ptr nonnull %6) #8
  ret ptr %.0
}